target datalayout = "e-m:e-p270:32:32-p271:32:32-p272:64:64-i64:64-i128:128-f80:128-n8:16:32:64-S128"
target triple = "x86_64-unknown-linux-gnu"

%struct.llama_batch = type { i32, ptr, ptr, ptr, ptr, ptr, ptr, i32, i32, i32 }

@.str.202 = private unnamed_addr constant [32 x i8] c"%s: failed to decode, ret = %d\0A\00", align 1
@__func__.llama_decode = private unnamed_addr constant [13 x i8] c"llama_decode\00", align 1

; Function Attrs: mustprogress uwtable
define i32 @llama_decode(ptr noundef %ctx, ptr noundef byval(%struct.llama_batch) align 8 %batch) #2 {
entry:
  %ctx.addr = alloca ptr, align 8
  %ret = alloca i32, align 4
  %agg.tmp = alloca %struct.llama_batch, align 8
  store ptr %ctx, ptr %ctx.addr, align 8
  %0 = load ptr, ptr %ctx.addr, align 8
  call void @llvm.memcpy.p0.p0.i64(ptr align 8 %agg.tmp, ptr align 8 %batch, i64 72, i1 false)
  %call = call noundef i32 @_ZL21llama_decode_internalR13llama_context11llama_batch(ptr noundef nonnull align 8 dereferenceable(5384) %0, ptr noundef byval(%struct.llama_batch) align 8 %agg.tmp)
  store i32 %call, ptr %ret, align 4
  %1 = load i32, ptr %ret, align 4
  %cmp = icmp slt i32 %1, 0
  br i1 %cmp, label %if.then, label %if.end

if.then:                                          ; preds = %entry
  %2 = load i32, ptr %ret, align 4
  call void (i32, ptr, ...) @_ZL18llama_log_internal14ggml_log_levelPKcz(i32 noundef 2, ptr noundef @.str.202, ptr noundef @__func__.llama_decode, i32 noundef %2)
  br label %if.end

if.end:                                           ; preds = %if.then, %entry
  %3 = load i32, ptr %ret, align 4
  ret i32 %3
}