; Function Attrs: mustprogress uwtable
define noundef i32 @llama_decode(ptr noundef nonnull %ctx, ptr nocapture noundef readonly byval(%struct.llama_batch) align 8 %batch) local_unnamed_addr #2 {
entry:
  %call = tail call fastcc noundef i32 @_ZL21llama_decode_internalR13llama_context11llama_batch(ptr noundef nonnull align 8 dereferenceable(5384) %ctx, ptr noundef nonnull byval(%struct.llama_batch) align 8 %batch)
  %cmp = icmp slt i32 %call, 0
  br i1 %cmp, label %if.then, label %if.end

if.then:                                          ; preds = %entry
  tail call void (i32, ptr, ...) @_ZL18llama_log_internal14ggml_log_levelPKcz(i32 noundef 2, ptr noundef nonnull @.str.202, ptr noundef nonnull @__func__.llama_decode, i32 noundef -1)
  br label %if.end

if.end:                                           ; preds = %if.then, %entry
  ret i32 %call
}